target datalayout = "e-m:e-p270:32:32-p271:32:32-p272:64:64-i64:64-i128:128-f80:128-n8:16:32:64-S128"
target triple = "x86_64-pc-linux-gnu"

%struct.Vec_Int_t_ = type { i32, i32, ptr }

; Function Attrs: inlinehint nounwind uwtable
define internal i32 @Vec_IntEntry(ptr noundef %0, i32 noundef %1) #4 {
  %3 = alloca ptr, align 8
  %4 = alloca i32, align 4
  store ptr %0, ptr %3, align 8, !tbaa !20
  store i32 %1, ptr %4, align 4, !tbaa !11
  %5 = load ptr, ptr %3, align 8, !tbaa !20
  %6 = getelementptr inbounds nuw %struct.Vec_Int_t_, ptr %5, i32 0, i32 2
  %7 = load ptr, ptr %6, align 8, !tbaa !27
  %8 = load i32, ptr %4, align 4, !tbaa !11
  %9 = sext i32 %8 to i64
  %10 = getelementptr inbounds i32, ptr %7, i64 %9
  %11 = load i32, ptr %10, align 4, !tbaa !11
  ret i32 %11
}

; Function Attrs: nounwind uwtable
define ptr @Kit_PlaStart(ptr noundef %0, i32 noundef %1, i32 noundef %2) #0 {
  %4 = alloca ptr, align 8
  %5 = alloca i32, align 4
  %6 = alloca i32, align 4
  %7 = alloca ptr, align 8
  %8 = alloca ptr, align 8
  %9 = alloca ptr, align 8
  %10 = alloca i32, align 4
  %11 = alloca i32, align 4
  store ptr %0, ptr %4, align 8, !tbaa !16
  store i32 %1, ptr %5, align 4, !tbaa !11
  store i32 %2, ptr %6, align 4, !tbaa !11
  call void @llvm.lifetime.start.p0(i64 8, ptr %7) #9
  %12 = load ptr, ptr %4, align 8, !tbaa !16
  store ptr %12, ptr %7, align 8, !tbaa !17
  call void @llvm.lifetime.start.p0(i64 8, ptr %8) #9
  call void @llvm.lifetime.start.p0(i64 8, ptr %9) #9
  call void @llvm.lifetime.start.p0(i64 4, ptr %10) #9
  call void @llvm.lifetime.start.p0(i64 4, ptr %11) #9
  %13 = load i32, ptr %5, align 4, !tbaa !11
  %14 = load i32, ptr %6, align 4, !tbaa !11
  %15 = add nsw i32 %14, 3
  %16 = mul nsw i32 %13, %15
  store i32 %16, ptr %11, align 4, !tbaa !11
  %17 = load ptr, ptr %7, align 8, !tbaa !17
  %18 = load i32, ptr %11, align 4, !tbaa !11
  %19 = add nsw i32 %18, 1
  %20 = call ptr @Aig_MmFlexEntryFetch(ptr noundef %17, i32 noundef %19)
  store ptr %20, ptr %8, align 8, !tbaa !3
  %21 = load ptr, ptr %8, align 8, !tbaa !3
  %22 = load i32, ptr %11, align 4, !tbaa !11
  %23 = sext i32 %22 to i64
  call void @llvm.memset.p0.i64(ptr align 1 %21, i8 45, i64 %23, i1 false)
  %24 = load ptr, ptr %8, align 8, !tbaa !3
  %25 = load i32, ptr %11, align 4, !tbaa !11
  %26 = sext i32 %25 to i64
  %27 = getelementptr inbounds i8, ptr %24, i64 %26
  store i8 0, ptr %27, align 1, !tbaa !8
  store i32 0, ptr %10, align 4, !tbaa !11
  br label %28

28:                                               ; preds = %55, %3
  %29 = load i32, ptr %10, align 4, !tbaa !11
  %30 = load i32, ptr %5, align 4, !tbaa !11
  %31 = icmp slt i32 %29, %30
  br i1 %31, label %32, label %58

32:                                               ; preds = %28
  %33 = load ptr, ptr %8, align 8, !tbaa !3
  %34 = load i32, ptr %10, align 4, !tbaa !11
  %35 = load i32, ptr %6, align 4, !tbaa !11
  %36 = add nsw i32 %35, 3
  %37 = mul nsw i32 %34, %36
  %38 = sext i32 %37 to i64
  %39 = getelementptr inbounds i8, ptr %33, i64 %38
  store ptr %39, ptr %9, align 8, !tbaa !3
  %40 = load ptr, ptr %9, align 8, !tbaa !3
  %41 = load i32, ptr %6, align 4, !tbaa !11
  %42 = add nsw i32 %41, 0
  %43 = sext i32 %42 to i64
  %44 = getelementptr inbounds i8, ptr %40, i64 %43
  store i8 32, ptr %44, align 1, !tbaa !8
  %45 = load ptr, ptr %9, align 8, !tbaa !3
  %46 = load i32, ptr %6, align 4, !tbaa !11
  %47 = add nsw i32 %46, 1
  %48 = sext i32 %47 to i64
  %49 = getelementptr inbounds i8, ptr %45, i64 %48
  store i8 49, ptr %49, align 1, !tbaa !8
  %50 = load ptr, ptr %9, align 8, !tbaa !3
  %51 = load i32, ptr %6, align 4, !tbaa !11
  %52 = add nsw i32 %51, 2
  %53 = sext i32 %52 to i64
  %54 = getelementptr inbounds i8, ptr %50, i64 %53
  store i8 10, ptr %54, align 1, !tbaa !8
  br label %55

55:                                               ; preds = %32
  %56 = load i32, ptr %10, align 4, !tbaa !11
  %57 = add nsw i32 %56, 1
  store i32 %57, ptr %10, align 4, !tbaa !11
  br label %28, !llvm.loop !19

58:                                               ; preds = %28
  %59 = load ptr, ptr %8, align 8, !tbaa !3
  call void @llvm.lifetime.end.p0(i64 4, ptr %11) #9
  call void @llvm.lifetime.end.p0(i64 4, ptr %10) #9
  call void @llvm.lifetime.end.p0(i64 8, ptr %9) #9
  call void @llvm.lifetime.end.p0(i64 8, ptr %8) #9
  call void @llvm.lifetime.end.p0(i64 8, ptr %7) #9
  ret ptr %59
}

; Function Attrs: inlinehint nounwind uwtable
define internal i32 @Vec_IntSize(ptr noundef %0) #4 {
  %2 = alloca ptr, align 8
  store ptr %0, ptr %2, align 8, !tbaa !20
  %3 = load ptr, ptr %2, align 8, !tbaa !20
  %4 = getelementptr inbounds nuw %struct.Vec_Int_t_, ptr %3, i32 0, i32 1
  %5 = load i32, ptr %4, align 4, !tbaa !24
  ret i32 %5
}

; Function Attrs: nounwind uwtable
define ptr @Kit_PlaCreateFromIsop(ptr noundef %0, i32 noundef %1, ptr noundef %2) #0 {
  %4 = alloca ptr, align 8
  %5 = alloca ptr, align 8
  %6 = alloca i32, align 4
  %7 = alloca ptr, align 8
  %8 = alloca ptr, align 8
  %9 = alloca ptr, align 8
  %10 = alloca ptr, align 8
  %11 = alloca i32, align 4
  %12 = alloca i32, align 4
  %13 = alloca i32, align 4
  %14 = alloca i32, align 4
  %15 = alloca i32, align 4
  store ptr %0, ptr %5, align 8, !tbaa !16
  store i32 %1, ptr %6, align 4, !tbaa !11
  store ptr %2, ptr %7, align 8, !tbaa !20
  call void @llvm.lifetime.start.p0(i64 8, ptr %8) #9
  %16 = load ptr, ptr %5, align 8, !tbaa !16
  store ptr %16, ptr %8, align 8, !tbaa !17
  call void @llvm.lifetime.start.p0(i64 8, ptr %9) #9
  call void @llvm.lifetime.start.p0(i64 8, ptr %10) #9
  call void @llvm.lifetime.start.p0(i64 4, ptr %11) #9
  call void @llvm.lifetime.start.p0(i64 4, ptr %12) #9
  call void @llvm.lifetime.start.p0(i64 4, ptr %13) #9
  call void @llvm.lifetime.start.p0(i64 4, ptr %14) #9
  %17 = load ptr, ptr %7, align 8, !tbaa !20
  %18 = call i32 @Vec_IntSize(ptr noundef %17)
  %19 = icmp eq i32 %18, 0
  br i1 %19, label %20, label %21

20:                                               ; preds = %3
  store ptr null, ptr %4, align 8
  store i32 1, ptr %15, align 4
  br label %87

21:                                               ; preds = %3
  %22 = load ptr, ptr %8, align 8, !tbaa !17
  %23 = load ptr, ptr %7, align 8, !tbaa !20
  %24 = call i32 @Vec_IntSize(ptr noundef %23)
  %25 = load i32, ptr %6, align 4, !tbaa !11
  %26 = call ptr @Kit_PlaStart(ptr noundef %22, i32 noundef %24, i32 noundef %25)
  store ptr %26, ptr %9, align 8, !tbaa !3
  store i32 0, ptr %11, align 4, !tbaa !11
  br label %27

27:                                               ; preds = %82, %21
  %28 = load i32, ptr %11, align 4, !tbaa !11
  %29 = load ptr, ptr %7, align 8, !tbaa !20
  %30 = call i32 @Vec_IntSize(ptr noundef %29)
  %31 = icmp slt i32 %28, %30
  br i1 %31, label %32, label %36

32:                                               ; preds = %27
  %33 = load ptr, ptr %7, align 8, !tbaa !20
  %34 = load i32, ptr %11, align 4, !tbaa !11
  %35 = call i32 @Vec_IntEntry(ptr noundef %33, i32 noundef %34)
  store i32 %35, ptr %13, align 4, !tbaa !11
  br label %36

36:                                               ; preds = %32, %27
  %37 = phi i1 [ false, %27 ], [ true, %32 ]
  br i1 %37, label %38, label %85

38:                                               ; preds = %36
  %39 = load ptr, ptr %9, align 8, !tbaa !3
  %40 = load i32, ptr %11, align 4, !tbaa !11
  %41 = load i32, ptr %6, align 4, !tbaa !11
  %42 = add nsw i32 %41, 3
  %43 = mul nsw i32 %40, %42
  %44 = sext i32 %43 to i64
  %45 = getelementptr inbounds i8, ptr %39, i64 %44
  store ptr %45, ptr %10, align 8, !tbaa !3
  store i32 0, ptr %12, align 4, !tbaa !11
  br label %46

46:                                               ; preds = %78, %38
  %47 = load i32, ptr %12, align 4, !tbaa !11
  %48 = load i32, ptr %6, align 4, !tbaa !11
  %49 = icmp slt i32 %47, %48
  br i1 %49, label %50, label %81

50:                                               ; preds = %46
  %51 = load i32, ptr %13, align 4, !tbaa !11
  %52 = load i32, ptr %12, align 4, !tbaa !11
  %53 = shl i32 %52, 1
  %54 = ashr i32 %51, %53
  %55 = and i32 3, %54
  store i32 %55, ptr %14, align 4, !tbaa !11
  %56 = load i32, ptr %14, align 4, !tbaa !11
  %57 = icmp eq i32 %56, 1
  br i1 %57, label %58, label %63

58:                                               ; preds = %50
  %59 = load ptr, ptr %10, align 8, !tbaa !3
  %60 = load i32, ptr %12, align 4, !tbaa !11
  %61 = sext i32 %60 to i64
  %62 = getelementptr inbounds i8, ptr %59, i64 %61
  store i8 48, ptr %62, align 1, !tbaa !8
  br label %77

63:                                               ; preds = %50
  %64 = load i32, ptr %14, align 4, !tbaa !11
  %65 = icmp eq i32 %64, 2
  br i1 %65, label %66, label %71

66:                                               ; preds = %63
  %67 = load ptr, ptr %10, align 8, !tbaa !3
  %68 = load i32, ptr %12, align 4, !tbaa !11
  %69 = sext i32 %68 to i64
  %70 = getelementptr inbounds i8, ptr %67, i64 %69
  store i8 49, ptr %70, align 1, !tbaa !8
  br label %76

71:                                               ; preds = %63
  %72 = load i32, ptr %14, align 4, !tbaa !11
  %73 = icmp ne i32 %72, 0
  br i1 %73, label %74, label %75

74:                                               ; preds = %71
  br label %75

75:                                               ; preds = %74, %71
  br label %76

76:                                               ; preds = %75, %66
  br label %77

77:                                               ; preds = %76, %58
  br label %78

78:                                               ; preds = %77
  %79 = load i32, ptr %12, align 4, !tbaa !11
  %80 = add nsw i32 %79, 1
  store i32 %80, ptr %12, align 4, !tbaa !11
  br label %46, !llvm.loop !22

81:                                               ; preds = %46
  br label %82

82:                                               ; preds = %81
  %83 = load i32, ptr %11, align 4, !tbaa !11
  %84 = add nsw i32 %83, 1
  store i32 %84, ptr %11, align 4, !tbaa !11
  br label %27, !llvm.loop !23

85:                                               ; preds = %36
  %86 = load ptr, ptr %9, align 8, !tbaa !3
  store ptr %86, ptr %4, align 8
  store i32 1, ptr %15, align 4
  br label %87

87:                                               ; preds = %85, %20
  call void @llvm.lifetime.end.p0(i64 4, ptr %14) #9
  call void @llvm.lifetime.end.p0(i64 4, ptr %13) #9
  call void @llvm.lifetime.end.p0(i64 4, ptr %12) #9
  call void @llvm.lifetime.end.p0(i64 4, ptr %11) #9
  call void @llvm.lifetime.end.p0(i64 8, ptr %10) #9
  call void @llvm.lifetime.end.p0(i64 8, ptr %9) #9
  call void @llvm.lifetime.end.p0(i64 8, ptr %8) #9
  %88 = load ptr, ptr %4, align 8
  ret ptr %88
}