; Function Attrs: nounwind uwtable
define ptr @Kit_PlaCreateFromIsop(ptr noundef %0, i32 noundef %1, ptr noundef readonly captures(none) %2) local_unnamed_addr #3 {
  %4 = getelementptr i8, ptr %2, i64 4
  %.val = load i32, ptr %4, align 4, !tbaa !12
  %5 = icmp eq i32 %.val, 0
  br i1 %5, label %.critedge, label %6

6:                                                ; preds = %3
  %7 = add nsw i32 %1, 3
  %8 = mul nsw i32 %.val, %7
  %9 = add nsw i32 %8, 1
  %10 = tail call ptr @Aig_MmFlexEntryFetch(ptr noundef %0, i32 noundef %9) #12
  %11 = sext i32 %8 to i64
  tail call void @llvm.memset.p0.i64(ptr align 1 %10, i8 45, i64 %11, i1 false)
  %12 = getelementptr inbounds i8, ptr %10, i64 %11
  store i8 0, ptr %12, align 1, !tbaa !3
  %13 = icmp sgt i32 %.val, 0
  br i1 %13, label %.lr.ph.i, label %Kit_PlaStart.exit

.lr.ph.i:                                         ; preds = %6
  %14 = sext i32 %1 to i64
  %invariant.gep.i = getelementptr i8, ptr %10, i64 %14
  %15 = sext i32 %7 to i64
  %wide.trip.count.i = zext nneg i32 %.val to i64
  br label %16

16:                                               ; preds = %16, %.lr.ph.i
  %indvars.iv.i = phi i64 [ 0, %.lr.ph.i ], [ %indvars.iv.next.i, %16 ]
  %17 = mul nsw i64 %indvars.iv.i, %15
  %gep.i = getelementptr i8, ptr %invariant.gep.i, i64 %17
  store i8 32, ptr %gep.i, align 1, !tbaa !3
  %18 = getelementptr i8, ptr %gep.i, i64 1
  store i8 49, ptr %18, align 1, !tbaa !3
  %19 = getelementptr i8, ptr %gep.i, i64 2
  store i8 10, ptr %19, align 1, !tbaa !3
  %indvars.iv.next.i = add nuw nsw i64 %indvars.iv.i, 1
  %exitcond.not.i = icmp eq i64 %indvars.iv.next.i, %wide.trip.count.i
  br i1 %exitcond.not.i, label %Kit_PlaStart.exit, label %16, !llvm.loop !11

Kit_PlaStart.exit:                                ; preds = %16, %6
  %.val3033 = load i32, ptr %4, align 4, !tbaa !12
  %20 = icmp sgt i32 %.val3033, 0
  br i1 %20, label %.lr.ph35, label %.critedge

.lr.ph35:                                         ; preds = %Kit_PlaStart.exit
  %21 = getelementptr i8, ptr %2, i64 8
  %22 = icmp sgt i32 %1, 0
  br i1 %22, label %.lr.ph.us.preheader, label %.critedge

.lr.ph.us.preheader:                              ; preds = %.lr.ph35
  %23 = zext nneg i32 %7 to i64
  %wide.trip.count = zext nneg i32 %1 to i64
  br label %.lr.ph.us

.lr.ph.us:                                        ; preds = %.lr.ph.us.preheader, %._crit_edge.us
  %indvars.iv38 = phi i64 [ 0, %.lr.ph.us.preheader ], [ %indvars.iv.next39, %._crit_edge.us ]
  %.val31.us = load ptr, ptr %21, align 8, !tbaa !17
  %24 = getelementptr inbounds nuw i32, ptr %.val31.us, i64 %indvars.iv38
  %25 = load i32, ptr %24, align 4, !tbaa !18
  %26 = mul nuw nsw i64 %indvars.iv38, %23
  %27 = getelementptr inbounds nuw i8, ptr %10, i64 %26
  br label %28

28:                                               ; preds = %.lr.ph.us, %34
  %indvars.iv = phi i64 [ 0, %.lr.ph.us ], [ %indvars.iv.next, %34 ]
  %indvars.iv.tr = trunc i64 %indvars.iv to i32
  %29 = shl i32 %indvars.iv.tr, 1
  %30 = ashr i32 %25, %29
  %31 = and i32 %30, 3
  switch i32 %31, label %34 [
    i32 1, label %32
    i32 2, label %.sink.split
  ]

32:                                               ; preds = %28
  br label %.sink.split

.sink.split:                                      ; preds = %28, %32
  %.sink = phi i8 [ 48, %32 ], [ 49, %28 ]
  %33 = getelementptr inbounds nuw i8, ptr %27, i64 %indvars.iv
  store i8 %.sink, ptr %33, align 1, !tbaa !3
  br label %34

34:                                               ; preds = %.sink.split, %28
  %indvars.iv.next = add nuw nsw i64 %indvars.iv, 1
  %exitcond.not = icmp eq i64 %indvars.iv.next, %wide.trip.count
  br i1 %exitcond.not, label %._crit_edge.us, label %28, !llvm.loop !19

._crit_edge.us:                                   ; preds = %34
  %indvars.iv.next39 = add nuw nsw i64 %indvars.iv38, 1
  %.val30.us = load i32, ptr %4, align 4, !tbaa !12
  %35 = sext i32 %.val30.us to i64
  %36 = icmp slt i64 %indvars.iv.next39, %35
  br i1 %36, label %.lr.ph.us, label %.critedge, !llvm.loop !20

.critedge:                                        ; preds = %._crit_edge.us, %.lr.ph35, %Kit_PlaStart.exit, %3
  %.0 = phi ptr [ null, %3 ], [ %10, %Kit_PlaStart.exit ], [ %10, %.lr.ph35 ], [ %10, %._crit_edge.us ]
  ret ptr %.0
}